; Function Attrs: mustprogress nofree norecurse nosync nounwind willreturn memory(readwrite, inaccessiblemem: none) uwtable
define internal noundef i32 @xibufferview_getbuf(ptr noundef %0, ptr noundef writeonly captures(none) initializes((0, 80)) %1, i32 %2) #6 {
  %4 = getelementptr inbounds nuw i8, ptr %0, i64 16
  %5 = load ptr, ptr %4, align 8, !tbaa !219
  tail call void @llvm.memcpy.p0.p0.i64(ptr noundef nonnull align 8 dereferenceable(80) %1, ptr noundef nonnull align 8 dereferenceable(80) %5, i64 72, i1 false), !tbaa.struct !221
  %6 = getelementptr inbounds nuw i8, ptr %1, i64 8
  store ptr %0, ptr %6, align 8, !tbaa !225
  %7 = getelementptr inbounds nuw i8, ptr %1, i64 72
  store ptr null, ptr %7, align 8, !tbaa !227
  ret i32 0
}